; Function Attrs: mustprogress nounwind uwtable
define hidden void @_ZN7Imf_3_214DeepImageLevelD2Ev(ptr noundef nonnull align 8 dereferenceable(192) %this) unnamed_addr #4 align 2 personality ptr @__gxx_personality_v0 {
entry:
  store ptr getelementptr inbounds ({ [11 x ptr] }, ptr @_ZTVN7Imf_3_214DeepImageLevelE, i64 0, i32 0, i64 2), ptr %this, align 8
  %_channels.i = getelementptr inbounds i8, ptr %this, i64 40
  %_M_left.i.i.i = getelementptr inbounds i8, ptr %this, i64 64
  %0 = load ptr, ptr %_M_left.i.i.i, align 8
  %add.ptr.i.i.i = getelementptr inbounds i8, ptr %this, i64 48
  %cmp.i.not4.i = icmp eq ptr %0, %add.ptr.i.i.i
  br i1 %cmp.i.not4.i, label %for.end.i, label %for.body.i

for.body.i:                                       ; preds = %entry, %for.inc.i
  %i.sroa.0.05.i = phi ptr [ %call.i.i, %for.inc.i ], [ %0, %entry ]
  %second.i = getelementptr inbounds i8, ptr %i.sroa.0.05.i, i64 64
  %1 = load ptr, ptr %second.i, align 8
  %isnull.i = icmp eq ptr %1, null
  br i1 %isnull.i, label %for.inc.i, label %delete.notnull.i

delete.notnull.i:                                 ; preds = %for.body.i
  %vtable.i = load ptr, ptr %1, align 8
  %vfn.i = getelementptr inbounds i8, ptr %vtable.i, i64 16
  %2 = load ptr, ptr %vfn.i, align 8
  tail call void %2(ptr noundef nonnull align 8 dereferenceable(48) %1) #13
  br label %for.inc.i

for.inc.i:                                        ; preds = %delete.notnull.i, %for.body.i
  %call.i.i = tail call noundef ptr @_ZSt18_Rb_tree_incrementPSt18_Rb_tree_node_base(ptr noundef nonnull %i.sroa.0.05.i) #15
  %cmp.i.not.i = icmp eq ptr %call.i.i, %add.ptr.i.i.i
  br i1 %cmp.i.not.i, label %for.end.i, label %for.body.i, !llvm.loop !4

for.end.i:                                        ; preds = %for.inc.i, %entry
  %_M_parent.i.i.i.i.i = getelementptr inbounds i8, ptr %this, i64 56
  %3 = load ptr, ptr %_M_parent.i.i.i.i.i, align 8
  invoke void @_ZNSt8_Rb_treeINSt7__cxx1112basic_stringIcSt11char_traitsIcESaIcEEESt4pairIKS5_PN7Imf_3_216DeepImageChannelEESt10_Select1stISB_ESt4lessIS5_ESaISB_EE8_M_eraseEPSt13_Rb_tree_nodeISB_E(ptr noundef nonnull align 8 dereferenceable(48) %_channels.i, ptr noundef %3)
          to label %_ZN7Imf_3_214DeepImageLevel13clearChannelsEv.exit unwind label %terminate.lpad.i.i.i

terminate.lpad.i.i.i:                             ; preds = %for.end.i
  %4 = landingpad { ptr, i32 }
          catch ptr null
  %5 = extractvalue { ptr, i32 } %4, 0
  tail call void @__clang_call_terminate(ptr %5) #14
  unreachable

_ZN7Imf_3_214DeepImageLevel13clearChannelsEv.exit: ; preds = %for.end.i
  store ptr null, ptr %_M_parent.i.i.i.i.i, align 8
  store ptr %add.ptr.i.i.i, ptr %_M_left.i.i.i, align 8
  %_M_right.i.i.i.i = getelementptr inbounds i8, ptr %this, i64 72
  store ptr %add.ptr.i.i.i, ptr %_M_right.i.i.i.i, align 8
  %_M_node_count.i.i.i.i = getelementptr inbounds i8, ptr %this, i64 80
  store i64 0, ptr %_M_node_count.i.i.i.i, align 8
  %_sampleCounts = getelementptr inbounds i8, ptr %this, i64 88
  tail call void @_ZN7Imf_3_218SampleCountChannelD1Ev(ptr noundef nonnull align 8 dereferenceable(104) %_sampleCounts) #13
  %6 = load ptr, ptr %_M_parent.i.i.i.i.i, align 8
  invoke void @_ZNSt8_Rb_treeINSt7__cxx1112basic_stringIcSt11char_traitsIcESaIcEEESt4pairIKS5_PN7Imf_3_216DeepImageChannelEESt10_Select1stISB_ESt4lessIS5_ESaISB_EE8_M_eraseEPSt13_Rb_tree_nodeISB_E(ptr noundef nonnull align 8 dereferenceable(48) %_channels.i, ptr noundef %6)
          to label %_ZNSt3mapINSt7__cxx1112basic_stringIcSt11char_traitsIcESaIcEEEPN7Imf_3_216DeepImageChannelESt4lessIS5_ESaISt4pairIKS5_S8_EEED2Ev.exit unwind label %terminate.lpad.i.i

terminate.lpad.i.i:                               ; preds = %_ZN7Imf_3_214DeepImageLevel13clearChannelsEv.exit
  %7 = landingpad { ptr, i32 }
          catch ptr null
  %8 = extractvalue { ptr, i32 } %7, 0
  tail call void @__clang_call_terminate(ptr %8) #14
  unreachable

_ZNSt3mapINSt7__cxx1112basic_stringIcSt11char_traitsIcESaIcEEEPN7Imf_3_216DeepImageChannelESt4lessIS5_ESaISt4pairIKS5_S8_EEED2Ev.exit: ; preds = %_ZN7Imf_3_214DeepImageLevel13clearChannelsEv.exit
  tail call void @_ZN7Imf_3_210ImageLevelD2Ev(ptr noundef nonnull align 8 dereferenceable(40) %this) #13
  ret void
}